; Function Attrs: mustprogress uwtable
define i32 @ucal_getTimeZoneIDForWindowsID_75(ptr noundef %winid, i32 noundef %len, ptr noundef %region, ptr noundef %id, i32 noundef %idCapacity, ptr noundef %status) local_unnamed_addr #1 personality ptr @__gxx_personality_v0 {
entry:
  %resultID = alloca %"class.icu_75::UnicodeString", align 8
  %ref.tmp = alloca %"class.icu_75::UnicodeString", align 8
  %agg.tmp = alloca %"class.icu_75::Char16Ptr", align 8
  %0 = load i32, ptr %status, align 4
  %cmp.i = icmp slt i32 %0, 1
  br i1 %cmp.i, label %if.end, label %return

if.end:                                           ; preds = %entry
  store ptr getelementptr inbounds ({ [13 x ptr] }, ptr @_ZTVN6icu_7513UnicodeStringE, i64 0, i32 0, i64 2), ptr %resultID, align 8
  %fUnion2.i = getelementptr inbounds i8, ptr %resultID, i64 8
  store i16 2, ptr %fUnion2.i, align 8
  invoke void @_ZN6icu_7513UnicodeStringC1EPKDsi(ptr noundef nonnull align 8 dereferenceable(64) %ref.tmp, ptr noundef %winid, i32 noundef %len)
          to label %invoke.cont unwind label %lpad

invoke.cont:                                      ; preds = %if.end
  %call3 = invoke noundef nonnull align 8 dereferenceable(64) ptr @_ZN6icu_758TimeZone17getIDForWindowsIDERKNS_13UnicodeStringEPKcRS1_R10UErrorCode(ptr noundef nonnull align 8 dereferenceable(64) %ref.tmp, ptr noundef %region, ptr noundef nonnull align 8 dereferenceable(64) %resultID, ptr noundef nonnull align 4 dereferenceable(4) %status)
          to label %invoke.cont2 unwind label %lpad1

invoke.cont2:                                     ; preds = %invoke.cont
  call void @_ZN6icu_7513UnicodeStringD1Ev(ptr noundef nonnull align 8 dereferenceable(64) %ref.tmp) #11
  %1 = load i32, ptr %status, align 4
  %cmp.i5 = icmp sgt i32 %1, 0
  br i1 %cmp.i5, label %if.end16, label %invoke.cont7

invoke.cont7:                                     ; preds = %invoke.cont2
  %2 = load i16, ptr %fUnion2.i, align 8
  %cmp.i.i = icmp slt i16 %2, 0
  %3 = ashr i16 %2, 5
  %shr.i.i = sext i16 %3 to i32
  %fLength.i = getelementptr inbounds i8, ptr %resultID, i64 12
  %4 = load i32, ptr %fLength.i, align 4
  %cond.i = select i1 %cmp.i.i, i32 %4, i32 %shr.i.i
  %cmp = icmp sgt i32 %cond.i, 0
  br i1 %cmp, label %invoke.cont10, label %if.end16

invoke.cont10:                                    ; preds = %invoke.cont7
  store ptr %id, ptr %agg.tmp, align 8
  %call15 = invoke noundef i32 @_ZNK6icu_7513UnicodeString7extractENS_9Char16PtrEiR10UErrorCode(ptr noundef nonnull align 8 dereferenceable(64) %resultID, ptr noundef nonnull %agg.tmp, i32 noundef %idCapacity, ptr noundef nonnull align 4 dereferenceable(4) %status)
          to label %invoke.cont14 unwind label %lpad13

invoke.cont14:                                    ; preds = %invoke.cont10
  %5 = load ptr, ptr %agg.tmp, align 8
  call void asm sideeffect "", "rm,~{memory},~{dirflag},~{fpsr},~{flags}"(ptr %5) #11, !srcloc !4
  br label %if.end16

lpad:                                             ; preds = %if.end
  %6 = landingpad { ptr, i32 }
          cleanup
  br label %ehcleanup

lpad1:                                            ; preds = %invoke.cont
  %7 = landingpad { ptr, i32 }
          cleanup
  call void @_ZN6icu_7513UnicodeStringD1Ev(ptr noundef nonnull align 8 dereferenceable(64) %ref.tmp) #11
  br label %ehcleanup

lpad13:                                           ; preds = %invoke.cont10
  %8 = landingpad { ptr, i32 }
          cleanup
  %9 = load ptr, ptr %agg.tmp, align 8
  call void asm sideeffect "", "rm,~{memory},~{dirflag},~{fpsr},~{flags}"(ptr %9) #11, !srcloc !4
  br label %ehcleanup

if.end16:                                         ; preds = %invoke.cont14, %invoke.cont7, %invoke.cont2
  %resultLen.0 = phi i32 [ %cond.i, %invoke.cont14 ], [ 0, %invoke.cont7 ], [ 0, %invoke.cont2 ]
  call void @_ZN6icu_7513UnicodeStringD1Ev(ptr noundef nonnull align 8 dereferenceable(64) %resultID) #11
  br label %return

ehcleanup:                                        ; preds = %lpad13, %lpad1, %lpad
  %.pn = phi { ptr, i32 } [ %8, %lpad13 ], [ %6, %lpad ], [ %7, %lpad1 ]
  call void @_ZN6icu_7513UnicodeStringD1Ev(ptr noundef nonnull align 8 dereferenceable(64) %resultID) #11
  resume { ptr, i32 } %.pn

return:                                           ; preds = %entry, %if.end16
  %retval.0 = phi i32 [ %resultLen.0, %if.end16 ], [ 0, %entry ]
  ret i32 %retval.0
}